target datalayout = "e-m:e-p270:32:32-p271:32:32-p272:64:64-i64:64-i128:128-f80:128-n8:16:32:64-S128"
target triple = "x86_64-unknown-linux-gnu"

%struct.amd_chipset_info = type { ptr, ptr, i32, %struct.amd_chipset_type, i32, i32, i8 }
%struct.amd_chipset_type = type { i32, i8 }
%struct.spinlock = type { %union.anon }
%union.anon = type { %struct.raw_spinlock }
%struct.raw_spinlock = type { %struct.qspinlock }
%struct.qspinlock = type { %union.anon.0 }
%union.anon.0 = type { %struct.atomic_t }
%struct.atomic_t = type { i32 }

@amd_chipset = internal unnamed_addr global %struct.amd_chipset_info zeroinitializer, align 8
@amd_lock = internal global %struct.spinlock zeroinitializer, align 4
@.str.1 = private unnamed_addr constant [29 x i8] c"\017QUIRK: Enable AMD PLL fix\0A\00", align 1

; Function Attrs: fn_ret_thunk_extern nounwind null_pointer_is_valid
define internal fastcc void @usb_amd_find_chipset_info() unnamed_addr #0 align 16 {
  %1 = alloca [7 x i8], align 1
  %2 = alloca [3 x i8], align 1
  call void @llvm.lifetime.start.p0(i64 7, ptr nonnull %1)
  call void @llvm.lifetime.start.p0(i64 3, ptr nonnull %2)
  call void @llvm.memset.p0.i64(ptr noundef nonnull align 1 dereferenceable(7) %1, i8 0, i64 7, i1 false)
  call void @llvm.memset.p0.i64(ptr noundef nonnull align 1 dereferenceable(3) %2, i8 0, i64 3, i1 false)
  %3 = tail call i64 @_raw_spin_lock_irqsave(ptr noundef nonnull @amd_lock) #9
  %4 = load i32, ptr getelementptr inbounds (%struct.amd_chipset_info, ptr @amd_chipset, i64 0, i32 5), align 8
  %5 = icmp sgt i32 %4, 0
  br i1 %5, label %6, label %8

6:                                                ; preds = %0
  %7 = add nuw i32 %4, 1
  store i32 %7, ptr getelementptr inbounds (%struct.amd_chipset_info, ptr @amd_chipset, i64 0, i32 5), align 8
  tail call void @_raw_spin_unlock_irqrestore(ptr noundef nonnull @amd_lock, i64 noundef %3) #9
  br label %80

8:                                                ; preds = %0
  tail call void @_raw_spin_unlock_irqrestore(ptr noundef nonnull @amd_lock, i64 noundef %3) #9
  %9 = tail call ptr @pci_get_device(i32 noundef 4098, i32 noundef 17285, ptr noundef null) #9
  %10 = icmp eq ptr %9, null
  br i1 %10, label %18, label %11

11:                                               ; preds = %8
  %12 = getelementptr inbounds i8, ptr %9, i64 72
  %13 = load i8, ptr %12, align 8
  %14 = and i8 %13, -16
  switch i8 %14, label %39 [
    i8 16, label %15
    i8 48, label %16
    i8 64, label %17
  ]

15:                                               ; preds = %11
  br label %39

16:                                               ; preds = %11
  br label %39

17:                                               ; preds = %11
  br label %39

18:                                               ; preds = %8
  %19 = tail call ptr @pci_get_device(i32 noundef 4130, i32 noundef 30731, ptr noundef null) #9
  %20 = icmp eq ptr %19, null
  br i1 %20, label %33, label %21

21:                                               ; preds = %18
  %22 = getelementptr inbounds i8, ptr %19, i64 72
  %23 = load i8, ptr %22, align 8
  %24 = add i8 %23, -17
  %25 = icmp ult i8 %24, 4
  br i1 %25, label %39, label %26

26:                                               ; preds = %21
  %27 = add i8 %23, -21
  %28 = icmp ult i8 %27, 4
  br i1 %28, label %39, label %29

29:                                               ; preds = %26
  %30 = add i8 %23, -57
  %31 = icmp ult i8 %30, 2
  %32 = select i1 %31, i32 6, i32 8
  br label %39

33:                                               ; preds = %18
  %34 = tail call ptr @pci_get_device(i32 noundef 4130, i32 noundef 5212, ptr noundef null) #9
  %35 = icmp eq ptr %34, null
  br i1 %35, label %39, label %36

36:                                               ; preds = %33
  %37 = getelementptr inbounds i8, ptr %34, i64 72
  %38 = load i8, ptr %37, align 8
  br label %39

39:                                               ; preds = %36, %33, %29, %26, %21, %17, %16, %15, %11
  %40 = phi ptr [ %34, %33 ], [ %34, %36 ], [ %9, %11 ], [ %9, %17 ], [ %9, %16 ], [ %9, %15 ], [ %19, %21 ], [ %19, %26 ], [ %19, %29 ]
  %41 = phi i32 [ 0, %33 ], [ 7, %36 ], [ 8, %11 ], [ 3, %17 ], [ 2, %16 ], [ 1, %15 ], [ 4, %21 ], [ 5, %26 ], [ %32, %29 ]
  %42 = phi i8 [ 0, %33 ], [ %38, %36 ], [ %13, %11 ], [ %13, %17 ], [ %13, %16 ], [ %13, %15 ], [ %23, %21 ], [ %23, %26 ], [ %23, %29 ]
  %43 = phi i1 [ true, %33 ], [ false, %36 ], [ false, %11 ], [ false, %17 ], [ false, %16 ], [ false, %15 ], [ false, %21 ], [ false, %26 ], [ false, %29 ]
  br i1 %43, label %69, label %44

44:                                               ; preds = %39
  switch i32 %41, label %48 [
    i32 2, label %45
    i32 3, label %49
    i32 4, label %49
    i32 5, label %49
  ]

45:                                               ; preds = %44
  %46 = icmp ult i8 %42, 60
  %47 = zext i1 %46 to i8
  br label %49

48:                                               ; preds = %44
  br label %49

49:                                               ; preds = %48, %45, %44, %44, %44
  %50 = phi i8 [ 0, %48 ], [ %47, %45 ], [ 1, %44 ], [ 1, %44 ], [ 1, %44 ]
  %51 = icmp eq i8 %50, 0
  br i1 %51, label %52, label %55

52:                                               ; preds = %49
  %53 = icmp eq ptr %40, null
  br i1 %53, label %69, label %54

54:                                               ; preds = %52
  tail call void @pci_dev_put(ptr noundef nonnull %40) #9
  br label %69

55:                                               ; preds = %49
  %56 = tail call ptr @pci_get_device(i32 noundef 4130, i32 noundef 38401, ptr noundef null) #9
  %57 = icmp eq ptr %56, null
  br i1 %57, label %58, label %65

58:                                               ; preds = %55
  %59 = tail call ptr @pci_get_device(i32 noundef 4130, i32 noundef 5392, ptr noundef null) #9
  %60 = icmp eq ptr %59, null
  br i1 %60, label %61, label %65

61:                                               ; preds = %58
  %62 = tail call ptr @pci_get_device(i32 noundef 4130, i32 noundef 38400, ptr noundef null) #9
  %63 = icmp eq ptr %62, null
  %64 = select i1 %63, i32 0, i32 3
  br label %65

65:                                               ; preds = %61, %58, %55
  %66 = phi ptr [ %56, %55 ], [ %59, %58 ], [ %62, %61 ]
  %67 = phi i32 [ 1, %55 ], [ 2, %58 ], [ %64, %61 ]
  %68 = tail call i32 (ptr, ...) @_printk(ptr noundef nonnull @.str.1) #10
  br label %69

69:                                               ; preds = %65, %54, %52, %39
  %70 = phi ptr [ null, %39 ], [ null, %52 ], [ null, %54 ], [ %66, %65 ]
  %71 = phi ptr [ %40, %39 ], [ %40, %52 ], [ null, %54 ], [ %40, %65 ]
  %72 = phi i32 [ 0, %39 ], [ 0, %52 ], [ 0, %54 ], [ %67, %65 ]
  %73 = phi i8 [ 0, %39 ], [ %50, %52 ], [ %50, %54 ], [ %50, %65 ]
  %74 = tail call i64 @_raw_spin_lock_irqsave(ptr noundef nonnull @amd_lock) #9
  %75 = load i32, ptr getelementptr inbounds (%struct.amd_chipset_info, ptr @amd_chipset, i64 0, i32 5), align 8
  %76 = icmp sgt i32 %75, 0
  br i1 %76, label %77, label %79

77:                                               ; preds = %69
  %78 = add nuw i32 %75, 1
  store i32 %78, ptr getelementptr inbounds (%struct.amd_chipset_info, ptr @amd_chipset, i64 0, i32 5), align 8
  tail call void @_raw_spin_unlock_irqrestore(ptr noundef nonnull @amd_lock, i64 noundef %74) #9
  tail call void @pci_dev_put(ptr noundef %70) #9
  tail call void @pci_dev_put(ptr noundef %71) #9
  br label %80

79:                                               ; preds = %69
  store ptr %70, ptr @amd_chipset, align 8
  store ptr %71, ptr getelementptr inbounds (%struct.amd_chipset_info, ptr @amd_chipset, i64 0, i32 1), align 8
  store i32 %72, ptr getelementptr inbounds (%struct.amd_chipset_info, ptr @amd_chipset, i64 0, i32 2), align 8
  store i32 %41, ptr getelementptr inbounds (%struct.amd_chipset_info, ptr @amd_chipset, i64 0, i32 3, i32 0), align 4
  store i8 %42, ptr getelementptr inbounds (%struct.amd_chipset_info, ptr @amd_chipset, i64 0, i32 3, i32 1), align 8
  call void @llvm.memcpy.p0.p0.i64(ptr noundef nonnull align 1 dereferenceable(7) getelementptr inbounds (i8, ptr @amd_chipset, i64 25), ptr noundef nonnull align 1 dereferenceable(7) %1, i64 7, i1 false)
  store i32 1, ptr getelementptr inbounds (%struct.amd_chipset_info, ptr @amd_chipset, i64 0, i32 5), align 8
  store i8 %73, ptr getelementptr inbounds (%struct.amd_chipset_info, ptr @amd_chipset, i64 0, i32 6), align 4
  call void @llvm.memcpy.p0.p0.i64(ptr noundef nonnull align 1 dereferenceable(3) getelementptr inbounds (i8, ptr @amd_chipset, i64 37), ptr noundef nonnull align 1 dereferenceable(3) %2, i64 3, i1 false)
  tail call void @_raw_spin_unlock_irqrestore(ptr noundef nonnull @amd_lock, i64 noundef %74) #9
  br label %80

80:                                               ; preds = %79, %77, %6
  call void @llvm.lifetime.end.p0(i64 7, ptr nonnull %1)
  call void @llvm.lifetime.end.p0(i64 3, ptr nonnull %2)
  ret void
}