; Function Attrs: fn_ret_thunk_extern nounwind null_pointer_is_valid
define internal fastcc void @usb_amd_find_chipset_info() unnamed_addr #0 align 16 {
  %1 = tail call i64 @_raw_spin_lock_irqsave(ptr noundef nonnull @amd_lock) #8
  %2 = load i32, ptr getelementptr inbounds (%struct.amd_chipset_info, ptr @amd_chipset, i64 0, i32 5), align 8
  %3 = icmp sgt i32 %2, 0
  br i1 %3, label %4, label %6

4:                                                ; preds = %0
  %5 = add nuw i32 %2, 1
  store i32 %5, ptr getelementptr inbounds (%struct.amd_chipset_info, ptr @amd_chipset, i64 0, i32 5), align 8
  tail call void @_raw_spin_unlock_irqrestore(ptr noundef nonnull @amd_lock, i64 noundef %1) #8
  br label %62

6:                                                ; preds = %0
  tail call void @_raw_spin_unlock_irqrestore(ptr noundef nonnull @amd_lock, i64 noundef %1) #8
  %7 = tail call ptr @pci_get_device(i32 noundef 4098, i32 noundef 17285, ptr noundef null) #8
  %8 = icmp eq ptr %7, null
  br i1 %8, label %14, label %9

9:                                                ; preds = %6
  %10 = getelementptr inbounds i8, ptr %7, i64 72
  %11 = load i8, ptr %10, align 8
  %12 = and i8 %11, -16
  switch i8 %12, label %.critedge [
    i8 16, label %13
    i8 48, label %34
    i8 64, label %.critedge12
  ]

13:                                               ; preds = %9
  br label %.critedge

14:                                               ; preds = %6
  %15 = tail call ptr @pci_get_device(i32 noundef 4130, i32 noundef 30731, ptr noundef null) #8
  %16 = icmp eq ptr %15, null
  br i1 %16, label %28, label %17

17:                                               ; preds = %14
  %18 = getelementptr inbounds i8, ptr %15, i64 72
  %19 = load i8, ptr %18, align 8
  %20 = add i8 %19, -17
  %21 = icmp ult i8 %20, 4
  br i1 %21, label %.critedge12, label %22

22:                                               ; preds = %17
  %23 = add i8 %19, -21
  %24 = icmp ult i8 %23, 4
  br i1 %24, label %.critedge12, label %25

25:                                               ; preds = %22
  %26 = add i8 %19, -57
  %27 = icmp ult i8 %26, 2
  %spec.select = select i1 %27, i32 6, i32 8
  br label %.critedge

28:                                               ; preds = %14
  %29 = tail call ptr @pci_get_device(i32 noundef 4130, i32 noundef 5212, ptr noundef null) #8
  %30 = icmp eq ptr %29, null
  br i1 %30, label %49, label %31

31:                                               ; preds = %28
  %32 = getelementptr inbounds i8, ptr %29, i64 72
  %33 = load i8, ptr %32, align 8
  br label %.critedge

34:                                               ; preds = %9
  %35 = icmp ugt i8 %11, 59
  br i1 %35, label %.critedge, label %.critedge12

.critedge:                                        ; preds = %25, %31, %9, %13, %34
  %.ph1422 = phi i8 [ %11, %34 ], [ %33, %31 ], [ %11, %9 ], [ %11, %13 ], [ %19, %25 ]
  %.ph1321 = phi i32 [ 2, %34 ], [ 7, %31 ], [ 8, %9 ], [ 1, %13 ], [ %spec.select, %25 ]
  %.ph20 = phi ptr [ %7, %34 ], [ %29, %31 ], [ %7, %9 ], [ %7, %13 ], [ %15, %25 ]
  tail call void @pci_dev_put(ptr noundef nonnull %.ph20) #8
  br label %49

.critedge12:                                      ; preds = %9, %17, %22, %34
  %.ph1433 = phi i8 [ %11, %34 ], [ %19, %17 ], [ %19, %22 ], [ %11, %9 ]
  %.ph1332 = phi i32 [ 2, %34 ], [ 4, %17 ], [ 5, %22 ], [ 3, %9 ]
  %.ph31 = phi ptr [ %7, %34 ], [ %15, %17 ], [ %15, %22 ], [ %7, %9 ]
  %36 = tail call ptr @pci_get_device(i32 noundef 4130, i32 noundef 38401, ptr noundef null) #8
  %37 = icmp eq ptr %36, null
  br i1 %37, label %38, label %45

38:                                               ; preds = %.critedge12
  %39 = tail call ptr @pci_get_device(i32 noundef 4130, i32 noundef 5392, ptr noundef null) #8
  %40 = icmp eq ptr %39, null
  br i1 %40, label %41, label %45

41:                                               ; preds = %38
  %42 = tail call ptr @pci_get_device(i32 noundef 4130, i32 noundef 38400, ptr noundef null) #8
  %43 = icmp eq ptr %42, null
  %44 = select i1 %43, i32 0, i32 3
  br label %45

45:                                               ; preds = %41, %38, %.critedge12
  %46 = phi ptr [ %36, %.critedge12 ], [ %39, %38 ], [ %42, %41 ]
  %47 = phi i32 [ 1, %.critedge12 ], [ 2, %38 ], [ %44, %41 ]
  %48 = tail call i32 (ptr, ...) @_printk(ptr noundef nonnull @.str.1) #9
  br label %49

49:                                               ; preds = %28, %45, %.critedge
  %50 = phi i8 [ %.ph1422, %.critedge ], [ %.ph1433, %45 ], [ 0, %28 ]
  %51 = phi i32 [ %.ph1321, %.critedge ], [ %.ph1332, %45 ], [ 0, %28 ]
  %52 = phi ptr [ null, %.critedge ], [ %46, %45 ], [ null, %28 ]
  %53 = phi ptr [ null, %.critedge ], [ %.ph31, %45 ], [ null, %28 ]
  %54 = phi i32 [ 0, %.critedge ], [ %47, %45 ], [ 0, %28 ]
  %55 = phi i8 [ 0, %.critedge ], [ 1, %45 ], [ 0, %28 ]
  %56 = tail call i64 @_raw_spin_lock_irqsave(ptr noundef nonnull @amd_lock) #8
  %57 = load i32, ptr getelementptr inbounds (%struct.amd_chipset_info, ptr @amd_chipset, i64 0, i32 5), align 8
  %58 = icmp sgt i32 %57, 0
  br i1 %58, label %59, label %61

59:                                               ; preds = %49
  %60 = add nuw i32 %57, 1
  store i32 %60, ptr getelementptr inbounds (%struct.amd_chipset_info, ptr @amd_chipset, i64 0, i32 5), align 8
  tail call void @_raw_spin_unlock_irqrestore(ptr noundef nonnull @amd_lock, i64 noundef %56) #8
  tail call void @pci_dev_put(ptr noundef %52) #8
  tail call void @pci_dev_put(ptr noundef %53) #8
  br label %62

61:                                               ; preds = %49
  store ptr %52, ptr @amd_chipset, align 8
  store ptr %53, ptr getelementptr inbounds (%struct.amd_chipset_info, ptr @amd_chipset, i64 0, i32 1), align 8
  store i32 %54, ptr getelementptr inbounds (%struct.amd_chipset_info, ptr @amd_chipset, i64 0, i32 2), align 8
  store i32 %51, ptr getelementptr inbounds (%struct.amd_chipset_info, ptr @amd_chipset, i64 0, i32 3, i32 0), align 4
  store i8 %50, ptr getelementptr inbounds (%struct.amd_chipset_info, ptr @amd_chipset, i64 0, i32 3, i32 1), align 8
  tail call void @llvm.memset.p0.i64(ptr noundef nonnull align 1 dereferenceable(7) getelementptr inbounds (i8, ptr @amd_chipset, i64 25), i8 0, i64 7, i1 false)
  store i32 1, ptr getelementptr inbounds (%struct.amd_chipset_info, ptr @amd_chipset, i64 0, i32 5), align 8
  store i8 %55, ptr getelementptr inbounds (%struct.amd_chipset_info, ptr @amd_chipset, i64 0, i32 6), align 4
  tail call void @llvm.memset.p0.i64(ptr noundef nonnull align 1 dereferenceable(3) getelementptr inbounds (i8, ptr @amd_chipset, i64 37), i8 0, i64 3, i1 false)
  tail call void @_raw_spin_unlock_irqrestore(ptr noundef nonnull @amd_lock, i64 noundef %56) #8
  br label %62

62:                                               ; preds = %61, %59, %4
  ret void
}